target datalayout = "e-m:e-p270:32:32-p271:32:32-p272:64:64-i64:64-i128:128-f80:128-n8:16:32:64-S128"
target triple = "x86_64-pc-linux-gnu"

%union.pthread_mutex_t = type { %struct.__pthread_mutex_s }
%struct.__pthread_mutex_s = type { i32, i32, i32, i32, i32, i16, i16, %struct.__pthread_internal_list }
%struct.__pthread_internal_list = type { ptr, ptr }
%struct.ccan_list_head = type { %struct.ccan_list_node }
%struct.ccan_list_node = type { ptr, ptr }
%struct.rb_thread_struct = type { %struct.ccan_list_node, i64, ptr, ptr, ptr, ptr, %struct.rb_thread_sched_item, i8, i32, i64, ptr, i64, i64, i8, i8, i32, ptr, i64, i64, i64, i64, %union.pthread_mutex_t, %struct.rb_unblock_callback, i64, ptr, %struct.ccan_list_head, ptr, %union.anon, i32, i64, ptr, i64, i32, i64, ptr, %struct.rb_ext_config }
%struct.rb_thread_sched_item = type { %struct.anon.7, %struct.rb_thread_sched_waiting, i8, i8, ptr, ptr }
%struct.anon.7 = type { %struct.ccan_list_node, %struct.ccan_list_node, %struct.ccan_list_node, %struct.ccan_list_node, %struct.ccan_list_node }
%struct.rb_thread_sched_waiting = type { i32, %struct.anon.8, %struct.ccan_list_node }
%struct.anon.8 = type { i64, i32, i32 }
%struct.rb_unblock_callback = type { ptr, ptr }
%union.anon = type { %struct.anon.9 }
%struct.anon.9 = type { i64, i64, i32 }
%struct.rb_ext_config = type { i8 }
%struct.rb_execution_context_struct = type { ptr, i64, ptr, ptr, i32, i32, ptr, ptr, ptr, i64, i64, i64, ptr, i64, ptr, i64, i64, i8, i8, i64, %struct.anon.11 }
%struct.anon.11 = type { ptr, ptr, i64, [1 x %struct.__jmp_buf_tag] }
%struct.__jmp_buf_tag = type { [8 x i64], i32, %struct.__sigset_t }
%struct.__sigset_t = type { [16 x i64] }
%struct.rb_ractor_struct = type { %struct.rb_ractor_pub, %struct.rb_ractor_sync, i64, %union.pthread_cond_t, %struct.anon.16, i64, i64, i64, i32, %struct.ccan_list_node, ptr, ptr, i64, i64, i64, i64, i64, i64, ptr }
%struct.rb_ractor_pub = type { i64, i32, %struct.rb_hook_list_struct }
%struct.rb_hook_list_struct = type { ptr, i32, i32, i8, i8 }
%struct.rb_ractor_sync = type { %union.pthread_mutex_t, i8, i8, %struct.rb_ractor_queue, %struct.rb_ractor_queue, %struct.rb_ractor_basket, %struct.ractor_wait }
%struct.rb_ractor_queue = type { ptr, i32, i32, i32, i32, i32 }
%struct.rb_ractor_basket = type { %union.anon.12, i64, %union.anon.13 }
%union.anon.12 = type { i32 }
%union.anon.13 = type { %struct.anon.14 }
%struct.anon.14 = type { i64, i8 }
%struct.ractor_wait = type { i32, i32, ptr }
%union.pthread_cond_t = type { %struct.__pthread_cond_s }
%struct.__pthread_cond_s = type { %union.__atomic_wide_counter, %union.__atomic_wide_counter, [2 x i32], [2 x i32], i32, i32, [2 x i32] }
%union.__atomic_wide_counter = type { i64 }
%struct.anon.16 = type { %struct.ccan_list_head, i32, i32, i32, %struct.rb_thread_sched, ptr, ptr }
%struct.rb_thread_sched = type { %union.pthread_mutex_t, ptr, i8, i8, i8, %struct.ccan_list_head, i32, %struct.ccan_list_node }

@ruby_single_main_ractor = external global ptr, align 8
@ruby_current_ec = external thread_local global ptr, align 8

; Function Attrs: inlinehint nounwind sspstrong uwtable
define internal ptr @rb_ec_thread_ptr(ptr noundef %0) #1 {
  %2 = alloca ptr, align 8
  store ptr %0, ptr %2, align 8, !tbaa !7
  %3 = load ptr, ptr %2, align 8, !tbaa !7
  %4 = getelementptr inbounds nuw %struct.rb_execution_context_struct, ptr %3, i32 0, i32 7
  %5 = load ptr, ptr %4, align 8, !tbaa !88
  ret ptr %5
}

; Function Attrs: inlinehint nounwind sspstrong uwtable
define internal ptr @rb_ec_ractor_ptr(ptr noundef %0) #1 {
  %2 = alloca ptr, align 8
  %3 = alloca ptr, align 8
  %4 = alloca ptr, align 8
  %5 = alloca i32, align 4
  store ptr %0, ptr %3, align 8, !tbaa !7
  call void @llvm.lifetime.start.p0(i64 8, ptr %4) #16
  %6 = load ptr, ptr %3, align 8, !tbaa !7
  %7 = call ptr @rb_ec_thread_ptr(ptr noundef %6)
  store ptr %7, ptr %4, align 8, !tbaa !12
  %8 = load ptr, ptr %4, align 8, !tbaa !12
  %9 = icmp ne ptr %8, null
  br i1 %9, label %10, label %14

10:                                               ; preds = %1
  %11 = load ptr, ptr %4, align 8, !tbaa !12
  %12 = getelementptr inbounds nuw %struct.rb_thread_struct, ptr %11, i32 0, i32 2
  %13 = load ptr, ptr %12, align 8, !tbaa !27
  store ptr %13, ptr %2, align 8
  store i32 1, ptr %5, align 4
  br label %15

14:                                               ; preds = %1
  store ptr null, ptr %2, align 8
  store i32 1, ptr %5, align 4
  br label %15

15:                                               ; preds = %14, %10
  call void @llvm.lifetime.end.p0(i64 8, ptr %4) #16
  %16 = load ptr, ptr %2, align 8
  ret ptr %16
}

; Function Attrs: inlinehint nounwind sspstrong uwtable
define internal ptr @rb_current_execution_context(i1 noundef zeroext %0) #1 {
  %2 = alloca i8, align 1
  %3 = alloca ptr, align 8
  %4 = zext i1 %0 to i8
  store i8 %4, ptr %2, align 1, !tbaa !51
  call void @llvm.lifetime.start.p0(i64 8, ptr %3) #16
  %5 = call align 8 ptr @llvm.threadlocal.address.p0(ptr align 8 @ruby_current_ec)
  %6 = load ptr, ptr %5, align 8, !tbaa !7
  store ptr %6, ptr %3, align 8, !tbaa !7
  %7 = load ptr, ptr %3, align 8, !tbaa !7
  call void @llvm.lifetime.end.p0(i64 8, ptr %3) #16
  ret ptr %7
}

; Function Attrs: inlinehint nounwind sspstrong uwtable
define internal ptr @rb_current_ractor_raw(i1 noundef zeroext %0) #1 {
  %2 = alloca ptr, align 8
  %3 = alloca i8, align 1
  %4 = alloca ptr, align 8
  %5 = zext i1 %0 to i8
  store i8 %5, ptr %3, align 1, !tbaa !51
  %6 = load ptr, ptr @ruby_single_main_ractor, align 8, !tbaa !61
  %7 = icmp ne ptr %6, null
  br i1 %7, label %8, label %10

8:                                                ; preds = %1
  %9 = load ptr, ptr @ruby_single_main_ractor, align 8, !tbaa !61
  store ptr %9, ptr %2, align 8
  br label %25

10:                                               ; preds = %1
  call void @llvm.lifetime.start.p0(i64 8, ptr %4) #16
  %11 = load i8, ptr %3, align 1, !tbaa !51, !range !54, !noundef !55
  %12 = trunc i8 %11 to i1
  %13 = call ptr @rb_current_execution_context(i1 noundef zeroext %12)
  store ptr %13, ptr %4, align 8, !tbaa !7
  %14 = load i8, ptr %3, align 1, !tbaa !51, !range !54, !noundef !55
  %15 = trunc i8 %14 to i1
  br i1 %15, label %19, label %16

16:                                               ; preds = %10
  %17 = load ptr, ptr %4, align 8, !tbaa !7
  %18 = icmp ne ptr %17, null
  br i1 %18, label %19, label %22

19:                                               ; preds = %16, %10
  %20 = load ptr, ptr %4, align 8, !tbaa !7
  %21 = call ptr @rb_ec_ractor_ptr(ptr noundef %20)
  br label %23

22:                                               ; preds = %16
  br label %23

23:                                               ; preds = %22, %19
  %24 = phi ptr [ %21, %19 ], [ null, %22 ]
  store ptr %24, ptr %2, align 8
  call void @llvm.lifetime.end.p0(i64 8, ptr %4) #16
  br label %25

25:                                               ; preds = %23, %8
  %26 = load ptr, ptr %2, align 8
  ret ptr %26
}

; Function Attrs: inlinehint nounwind sspstrong uwtable
define internal ptr @rb_current_ractor() #1 {
  %1 = call ptr @rb_current_ractor_raw(i1 noundef zeroext true)
  ret ptr %1
}

; Function Attrs: nounwind sspstrong uwtable
define dso_local i64 @rb_thread_main() #0 {
  %1 = call ptr @rb_current_ractor()
  %2 = getelementptr inbounds nuw %struct.rb_ractor_struct, ptr %1, i32 0, i32 4
  %3 = getelementptr inbounds nuw %struct.anon.16, ptr %2, i32 0, i32 6
  %4 = load ptr, ptr %3, align 8, !tbaa !208
  %5 = getelementptr inbounds nuw %struct.rb_thread_struct, ptr %4, i32 0, i32 1
  %6 = load i64, ptr %5, align 8, !tbaa !93
  ret i64 %6
}

; Function Attrs: nounwind sspstrong uwtable
define internal i64 @rb_thread_s_main(i64 noundef %0) #0 {
  %2 = alloca i64, align 8
  store i64 %0, ptr %2, align 8, !tbaa !22
  %3 = call i64 @rb_thread_main()
  ret i64 %3
}