; Function Attrs: mustprogress nofree norecurse nosync nounwind sspstrong willreturn memory(read, inaccessiblemem: none) uwtable
define internal i64 @rb_thread_s_main(i64 %0) #23 {
  %2 = load ptr, ptr @ruby_single_main_ractor, align 8, !tbaa !146
  %.not.i.i.i = icmp eq ptr %2, null
  br i1 %.not.i.i.i, label %3, label %rb_thread_main.exit

3:                                                ; preds = %1
  %4 = tail call align 8 ptr @llvm.threadlocal.address.p0(ptr align 8 @ruby_current_ec)
  %5 = load ptr, ptr %4, align 8, !tbaa !148
  %6 = getelementptr i8, ptr %5, i64 48
  %.val.i.i.i = load ptr, ptr %6, align 8, !tbaa !7, !nonnull !103, !noundef !103
  %7 = getelementptr inbounds nuw i8, ptr %.val.i.i.i, i64 24
  %8 = load ptr, ptr %7, align 8, !tbaa !52
  br label %rb_thread_main.exit

rb_thread_main.exit:                              ; preds = %1, %3
  %.0.i.i.i = phi ptr [ %2, %1 ], [ %8, %3 ]
  %9 = getelementptr inbounds nuw i8, ptr %.0.i.i.i, i64 392
  %10 = load ptr, ptr %9, align 8, !tbaa !207
  %11 = getelementptr inbounds nuw i8, ptr %10, i64 16
  %12 = load i64, ptr %11, align 8, !tbaa !88
  ret i64 %12
}